; Function Attrs: nounwind uwtable
define dso_local i64 @network_host(ptr noundef readonly captures(none) %0) local_unnamed_addr #0 {
  %2 = alloca [50 x i8], align 16
  %3 = getelementptr inbounds nuw i8, ptr %0, i64 32
  %4 = load i64, ptr %3, align 8
  %5 = inttoptr i64 %4 to ptr
  %6 = tail call ptr @pg_detoast_datum_packed(ptr noundef %5) #14
  call void @llvm.lifetime.start.p0(i64 50, ptr nonnull %2) #14
  %7 = load i8, ptr %6, align 1
  %8 = and i8 %7, 1
  %.not = icmp eq i8 %8, 0
  %.v = select i1 %.not, i64 4, i64 1
  %9 = getelementptr inbounds nuw i8, ptr %6, i64 %.v
  %10 = load i8, ptr %9, align 1
  %11 = zext i8 %10 to i32
  %12 = getelementptr inbounds nuw i8, ptr %9, i64 2
  %13 = icmp eq i8 %10, 2
  %14 = select i1 %13, i32 32, i32 128
  %15 = call ptr @pg_inet_net_ntop(i32 noundef %11, ptr noundef nonnull %12, i32 noundef %14, ptr noundef nonnull %2, i64 noundef 50) #14
  %16 = icmp eq ptr %15, null
  br i1 %16, label %17, label %21

17:                                               ; preds = %1
  %18 = call zeroext i1 @errstart_cold(i32 noundef 21, ptr noundef null) #16
  call void @llvm.assume(i1 %18)
  %19 = call i32 @errcode(i32 noundef 50462850) #14
  %20 = call i32 (ptr, ...) @errmsg(ptr noundef nonnull @.str.3) #14
  call void @errfinish(ptr noundef nonnull @.str.1, i32 noundef 1178, ptr noundef nonnull @__func__.network_host) #14
  unreachable

21:                                               ; preds = %1
  %22 = call ptr @strchr(ptr noundef nonnull dereferenceable(1) %2, i32 noundef 47) #15
  %.not11 = icmp eq ptr %22, null
  br i1 %.not11, label %24, label %23

23:                                               ; preds = %21
  store i8 0, ptr %22, align 1
  br label %24

24:                                               ; preds = %23, %21
  %25 = call ptr @cstring_to_text(ptr noundef nonnull %2) #14
  %26 = ptrtoint ptr %25 to i64
  call void @llvm.lifetime.end.p0(i64 50, ptr nonnull %2) #14
  ret i64 %26
}